target datalayout = "e-m:e-p270:32:32-p271:32:32-p272:64:64-i64:64-i128:128-f80:128-n8:16:32:64-S128"
target triple = "x86_64-pc-linux-gnu"

%struct.Extra_UnateInfo_t_ = type { i32, i32, i32, ptr }

; Function Attrs: nounwind uwtable
define ptr @Extra_UnateInfoAllocate(i32 noundef %0) #0 {
  %2 = alloca i32, align 4
  %3 = alloca ptr, align 8
  store i32 %0, ptr %2, align 4, !tbaa !31
  call void @llvm.lifetime.start.p0(i64 8, ptr %3) #6
  %4 = call noalias ptr @malloc(i64 noundef 24) #7
  store ptr %4, ptr %3, align 8, !tbaa !10
  %5 = load ptr, ptr %3, align 8, !tbaa !10
  call void @llvm.memset.p0.i64(ptr align 8 %5, i8 0, i64 24, i1 false)
  %6 = load i32, ptr %2, align 4, !tbaa !31
  %7 = load ptr, ptr %3, align 8, !tbaa !10
  %8 = getelementptr inbounds nuw %struct.Extra_UnateInfo_t_, ptr %7, i32 0, i32 0
  store i32 %6, ptr %8, align 8, !tbaa !50
  %9 = load i32, ptr %2, align 4, !tbaa !31
  %10 = sext i32 %9 to i64
  %11 = mul i64 4, %10
  %12 = call noalias ptr @malloc(i64 noundef %11) #7
  %13 = load ptr, ptr %3, align 8, !tbaa !10
  %14 = getelementptr inbounds nuw %struct.Extra_UnateInfo_t_, ptr %13, i32 0, i32 3
  store ptr %12, ptr %14, align 8, !tbaa !39
  %15 = load ptr, ptr %3, align 8, !tbaa !10
  %16 = getelementptr inbounds nuw %struct.Extra_UnateInfo_t_, ptr %15, i32 0, i32 3
  %17 = load ptr, ptr %16, align 8, !tbaa !39
  %18 = load i32, ptr %2, align 4, !tbaa !31
  %19 = sext i32 %18 to i64
  %20 = mul i64 %19, 4
  call void @llvm.memset.p0.i64(ptr align 4 %17, i8 0, i64 %20, i1 false)
  %21 = load ptr, ptr %3, align 8, !tbaa !10
  call void @llvm.lifetime.end.p0(i64 8, ptr %3) #6
  ret ptr %21
}