; Function Attrs: mustprogress nofree nounwind willreturn memory(write, argmem: none, inaccessiblemem: readwrite) uwtable
define noalias noundef ptr @Extra_UnateInfoAllocate(i32 noundef %0) local_unnamed_addr #2 {
  %calloc = tail call dereferenceable_or_null(24) ptr @calloc(i64 1, i64 24)
  store i32 %0, ptr %calloc, align 8, !tbaa !26
  %2 = sext i32 %0 to i64
  %3 = shl nsw i64 %2, 2
  %calloc7 = tail call ptr @calloc(i64 1, i64 %3)
  %4 = getelementptr inbounds nuw i8, ptr %calloc, i64 16
  store ptr %calloc7, ptr %4, align 8, !tbaa !29
  ret ptr %calloc
}